target datalayout = "e-m:e-p270:32:32-p271:32:32-p272:64:64-i64:64-i128:128-f80:128-n8:16:32:64-S128"
target triple = "x86_64-pc-linux-gnu"

%"class.enki::TaskScheduler" = type <{ [3 x ptr], [3 x ptr], i32, [4 x i8], ptr, ptr, %"struct.std::atomic", %"struct.std::atomic", %"struct.std::atomic", i8, %"struct.std::atomic.0", %"struct.std::atomic.0", %"struct.std::atomic.0", i32, [4 x i8], ptr, ptr, i32, i8, [3 x i8], %"struct.enki::TaskSchedulerConfig", %"struct.std::atomic.0", [4 x i8] }>
%"struct.std::atomic" = type { %"struct.std::__atomic_base" }
%"struct.std::__atomic_base" = type { i8 }
%"struct.enki::TaskSchedulerConfig" = type { i32, i32, %"struct.enki::ProfilerCallbacks", %"struct.enki::CustomAllocator" }
%"struct.enki::ProfilerCallbacks" = type { ptr, ptr, ptr, ptr, ptr, ptr, ptr, ptr }
%"struct.enki::CustomAllocator" = type { ptr, ptr, ptr }
%"struct.std::atomic.0" = type { %"struct.std::__atomic_base.1" }
%"struct.std::__atomic_base.1" = type { i32 }

; Function Attrs: mustprogress uwtable
define dso_local void @_ZN4enki13TaskScheduler10InitializeEj(ptr noundef nonnull align 8 dereferenceable(220) %0, i32 noundef %1) #0 align 2 {
  %3 = alloca ptr, align 8
  %4 = alloca i32, align 4
  store ptr %0, ptr %3, align 8, !tbaa !4
  store i32 %1, ptr %4, align 4, !tbaa !11
  %5 = load ptr, ptr %3, align 8
  call void @_ZN4enki13TaskScheduler11StopThreadsEb(ptr noundef nonnull align 8 dereferenceable(220) %5, i1 noundef zeroext true)
  %6 = load i32, ptr %4, align 4, !tbaa !11
  %7 = sub i32 %6, 1
  %8 = getelementptr inbounds nuw %"class.enki::TaskScheduler", ptr %5, i32 0, i32 20
  %9 = getelementptr inbounds nuw %"struct.enki::TaskSchedulerConfig", ptr %8, i32 0, i32 0
  store i32 %7, ptr %9, align 8, !tbaa !90
  %10 = getelementptr inbounds nuw %"class.enki::TaskScheduler", ptr %5, i32 0, i32 20
  %11 = getelementptr inbounds nuw %"struct.enki::TaskSchedulerConfig", ptr %10, i32 0, i32 1
  store i32 0, ptr %11, align 4, !tbaa !64
  call void @_ZN4enki13TaskScheduler12StartThreadsEv(ptr noundef nonnull align 8 dereferenceable(220) %5)
  ret void
}

; Function Attrs: mustprogress uwtable
define dso_local void @_ZN4enki13TaskScheduler10InitializeEv(ptr noundef nonnull align 8 dereferenceable(220) %0) #0 align 2 {
  %2 = alloca ptr, align 8
  store ptr %0, ptr %2, align 8, !tbaa !4
  %3 = load ptr, ptr %2, align 8
  %4 = call noundef i32 @_ZNSt6thread20hardware_concurrencyEv() #14
  call void @_ZN4enki13TaskScheduler10InitializeEj(ptr noundef nonnull align 8 dereferenceable(220) %3, i32 noundef %4)
  ret void
}